target datalayout = "e-m:e-p270:32:32-p271:32:32-p272:64:64-i64:64-i128:128-f80:128-n8:16:32:64-S128"
target triple = "x86_64-pc-linux-gnu"

%struct.quic_tserver_args_st = type { ptr, ptr, ptr, ptr, ptr, ptr, ptr, ptr, i64 }
%struct.quic_tserver_st = type { %struct.quic_tserver_args_st, ptr, ptr, ptr, ptr, ptr, ptr, ptr, i8 }

@.str = private unnamed_addr constant [35 x i8] c"../openssl/ssl/quic/quic_tserver.c\00", align 1

; Function Attrs: nounwind uwtable
define void @ossl_quic_tserver_free(ptr noundef %0) #0 {
  %2 = alloca ptr, align 8
  store ptr %0, ptr %2, align 8, !tbaa !10
  %3 = load ptr, ptr %2, align 8, !tbaa !10
  %4 = icmp eq ptr %3, null
  br i1 %4, label %5, label %6

5:                                                ; preds = %1
  br label %36

6:                                                ; preds = %1
  %7 = load ptr, ptr %2, align 8, !tbaa !10
  %8 = getelementptr inbounds nuw %struct.quic_tserver_st, ptr %7, i32 0, i32 7
  %9 = load ptr, ptr %8, align 8, !tbaa !39
  call void @SSL_free(ptr noundef %9)
  %10 = load ptr, ptr %2, align 8, !tbaa !10
  %11 = getelementptr inbounds nuw %struct.quic_tserver_st, ptr %10, i32 0, i32 4
  %12 = load ptr, ptr %11, align 8, !tbaa !52
  call void @ossl_quic_channel_free(ptr noundef %12)
  %13 = load ptr, ptr %2, align 8, !tbaa !10
  %14 = getelementptr inbounds nuw %struct.quic_tserver_st, ptr %13, i32 0, i32 3
  %15 = load ptr, ptr %14, align 8, !tbaa !51
  call void @ossl_quic_port_free(ptr noundef %15)
  %16 = load ptr, ptr %2, align 8, !tbaa !10
  %17 = getelementptr inbounds nuw %struct.quic_tserver_st, ptr %16, i32 0, i32 2
  %18 = load ptr, ptr %17, align 8, !tbaa !44
  call void @ossl_quic_engine_free(ptr noundef %18)
  %19 = load ptr, ptr %2, align 8, !tbaa !10
  %20 = getelementptr inbounds nuw %struct.quic_tserver_st, ptr %19, i32 0, i32 0
  %21 = getelementptr inbounds nuw %struct.quic_tserver_args_st, ptr %20, i32 0, i32 3
  %22 = load ptr, ptr %21, align 8, !tbaa !53
  call void @BIO_free_all(ptr noundef %22)
  %23 = load ptr, ptr %2, align 8, !tbaa !10
  %24 = getelementptr inbounds nuw %struct.quic_tserver_st, ptr %23, i32 0, i32 0
  %25 = getelementptr inbounds nuw %struct.quic_tserver_args_st, ptr %24, i32 0, i32 4
  %26 = load ptr, ptr %25, align 8, !tbaa !54
  call void @BIO_free_all(ptr noundef %26)
  %27 = load ptr, ptr %2, align 8, !tbaa !10
  %28 = getelementptr inbounds nuw %struct.quic_tserver_st, ptr %27, i32 0, i32 1
  %29 = load ptr, ptr %28, align 8, !tbaa !55
  call void @CRYPTO_free(ptr noundef %29, ptr noundef @.str, i32 noundef 180)
  %30 = load ptr, ptr %2, align 8, !tbaa !10
  %31 = getelementptr inbounds nuw %struct.quic_tserver_st, ptr %30, i32 0, i32 6
  %32 = load ptr, ptr %31, align 8, !tbaa !36
  call void @SSL_CTX_free(ptr noundef %32)
  %33 = load ptr, ptr %2, align 8, !tbaa !10
  %34 = getelementptr inbounds nuw %struct.quic_tserver_st, ptr %33, i32 0, i32 5
  call void @ossl_crypto_mutex_free(ptr noundef %34)
  %35 = load ptr, ptr %2, align 8, !tbaa !10
  call void @CRYPTO_free(ptr noundef %35, ptr noundef @.str, i32 noundef 185)
  br label %36

36:                                               ; preds = %6, %5
  ret void
}