; Function Attrs: nounwind uwtable
define void @ossl_quic_tserver_free(ptr noundef %0) local_unnamed_addr #0 {
  %2 = icmp eq ptr %0, null
  br i1 %2, label %21, label %3

3:                                                ; preds = %1
  %4 = getelementptr inbounds nuw i8, ptr %0, i64 120
  %5 = load ptr, ptr %4, align 8, !tbaa !33
  tail call void @SSL_free(ptr noundef %5) #6
  %6 = getelementptr inbounds nuw i8, ptr %0, i64 96
  %7 = load ptr, ptr %6, align 8, !tbaa !46
  tail call void @ossl_quic_channel_free(ptr noundef %7) #6
  %8 = getelementptr inbounds nuw i8, ptr %0, i64 88
  %9 = load ptr, ptr %8, align 8, !tbaa !45
  tail call void @ossl_quic_port_free(ptr noundef %9) #6
  %10 = getelementptr inbounds nuw i8, ptr %0, i64 80
  %11 = load ptr, ptr %10, align 8, !tbaa !38
  tail call void @ossl_quic_engine_free(ptr noundef %11) #6
  %12 = getelementptr inbounds nuw i8, ptr %0, i64 24
  %13 = load ptr, ptr %12, align 8, !tbaa !47
  tail call void @BIO_free_all(ptr noundef %13) #6
  %14 = getelementptr inbounds nuw i8, ptr %0, i64 32
  %15 = load ptr, ptr %14, align 8, !tbaa !48
  tail call void @BIO_free_all(ptr noundef %15) #6
  %16 = getelementptr inbounds nuw i8, ptr %0, i64 72
  %17 = load ptr, ptr %16, align 8, !tbaa !49
  tail call void @CRYPTO_free(ptr noundef %17, ptr noundef nonnull @.str, i32 noundef 180) #6
  %18 = getelementptr inbounds nuw i8, ptr %0, i64 112
  %19 = load ptr, ptr %18, align 8, !tbaa !30
  tail call void @SSL_CTX_free(ptr noundef %19) #6
  %20 = getelementptr inbounds nuw i8, ptr %0, i64 104
  tail call void @ossl_crypto_mutex_free(ptr noundef nonnull %20) #6
  tail call void @CRYPTO_free(ptr noundef nonnull %0, ptr noundef nonnull @.str, i32 noundef 185) #6
  br label %21

21:                                               ; preds = %1, %3
  ret void
}